target datalayout = "e-m:e-p270:32:32-p271:32:32-p272:64:64-i64:64-i128:128-f80:128-n8:16:32:64-S128"
target triple = "x86_64-pc-linux-gnu"

@wal_sync_method = dso_local global i32 1, align 4
@wal_segment_size = dso_local global i32 16777216, align 4
@.str.14 = private unnamed_addr constant [7 x i8] c"xlog.c\00", align 1
@enableFsync = external global i8, align 1
@.str.20 = private unnamed_addr constant [29 x i8] c"could not open file \22%s\22: %m\00", align 1
@__func__.XLogFileOpen = private unnamed_addr constant [13 x i8] c"XLogFileOpen\00", align 1
@.str.78 = private unnamed_addr constant [35 x i8] c"unrecognized \22wal_sync_method\22: %d\00", align 1
@io_direct_flags = external global i32, align 4
@.str.117 = private unnamed_addr constant [20 x i8] c"pg_wal/%08X%08X%08X\00", align 1
@MyBackendType = external global i32, align 4
@__func__.get_sync_bit = private unnamed_addr constant [13 x i8] c"get_sync_bit\00", align 1

; Function Attrs: nounwind uwtable
define internal i32 @get_sync_bit(i32 noundef %0) #0 {
  %2 = alloca i32, align 4
  %3 = alloca i32, align 4
  %4 = alloca i32, align 4
  %5 = alloca i32, align 4
  store i32 %0, ptr %3, align 4
  call void @llvm.lifetime.start.p0(i64 4, ptr %4) #16
  store i32 0, ptr %4, align 4
  %6 = load i32, ptr @io_direct_flags, align 4
  %7 = and i32 %6, 2
  %8 = icmp ne i32 %7, 0
  br i1 %8, label %9, label %13

9:                                                ; preds = %1
  %10 = load i32, ptr @MyBackendType, align 4
  %11 = icmp eq i32 %10, 13
  br i1 %11, label %13, label %12

12:                                               ; preds = %9
  store i32 16384, ptr %4, align 4
  br label %13

13:                                               ; preds = %12, %9, %1
  %14 = load i8, ptr @enableFsync, align 1, !range !4, !noundef !5
  %15 = trunc i8 %14 to i1
  br i1 %15, label %18, label %16

16:                                               ; preds = %13
  %17 = load i32, ptr %4, align 4
  store i32 %17, ptr %2, align 4
  store i32 1, ptr %5, align 4
  br label %40

18:                                               ; preds = %13
  %19 = load i32, ptr %3, align 4
  switch i32 %19, label %28 [
    i32 0, label %20
    i32 3, label %20
    i32 1, label %20
    i32 2, label %22
    i32 4, label %25
  ]

20:                                               ; preds = %18, %18, %18
  %21 = load i32, ptr %4, align 4
  store i32 %21, ptr %2, align 4
  store i32 1, ptr %5, align 4
  br label %40

22:                                               ; preds = %18
  %23 = load i32, ptr %4, align 4
  %24 = or i32 1052672, %23
  store i32 %24, ptr %2, align 4
  store i32 1, ptr %5, align 4
  br label %40

25:                                               ; preds = %18
  %26 = load i32, ptr %4, align 4
  %27 = or i32 4096, %26
  store i32 %27, ptr %2, align 4
  store i32 1, ptr %5, align 4
  br label %40

28:                                               ; preds = %18
  br label %29

29:                                               ; preds = %28
  br i1 true, label %30, label %32

30:                                               ; preds = %29
  %31 = call zeroext i1 @errstart_cold(i32 noundef 21, ptr noundef null) #17
  br i1 %31, label %34, label %37

32:                                               ; preds = %29
  %33 = call zeroext i1 @errstart(i32 noundef 21, ptr noundef null)
  br i1 %33, label %34, label %37

34:                                               ; preds = %32, %30
  %35 = load i32, ptr %3, align 4
  %36 = call i32 (ptr, ...) @errmsg_internal(ptr noundef @.str.78, i32 noundef %35)
  call void @errfinish(ptr noundef @.str.14, i32 noundef 8653, ptr noundef @__func__.get_sync_bit)
  br label %37

37:                                               ; preds = %34, %32, %30
  unreachable

38:                                               ; No predecessors!
  br label %39

39:                                               ; preds = %38
  store i32 0, ptr %2, align 4
  store i32 1, ptr %5, align 4
  br label %40

40:                                               ; preds = %39, %25, %22, %20, %16
  call void @llvm.lifetime.end.p0(i64 4, ptr %4) #16
  %41 = load i32, ptr %2, align 4
  ret i32 %41
}

; Function Attrs: inlinehint nounwind uwtable
define internal void @XLogFilePath(ptr noundef %0, i32 noundef %1, i64 noundef %2, i32 noundef %3) #6 {
  %5 = alloca ptr, align 8
  %6 = alloca i32, align 4
  %7 = alloca i64, align 8
  %8 = alloca i32, align 4
  store ptr %0, ptr %5, align 8
  store i32 %1, ptr %6, align 4
  store i64 %2, ptr %7, align 8
  store i32 %3, ptr %8, align 4
  %9 = load ptr, ptr %5, align 8
  %10 = load i32, ptr %6, align 4
  %11 = load i64, ptr %7, align 8
  %12 = load i32, ptr %8, align 4
  %13 = sext i32 %12 to i64
  %14 = udiv i64 4294967296, %13
  %15 = udiv i64 %11, %14
  %16 = trunc i64 %15 to i32
  %17 = load i64, ptr %7, align 8
  %18 = load i32, ptr %8, align 4
  %19 = sext i32 %18 to i64
  %20 = udiv i64 4294967296, %19
  %21 = urem i64 %17, %20
  %22 = trunc i64 %21 to i32
  %23 = call i32 (ptr, i64, ptr, ...) @pg_snprintf(ptr noundef %9, i64 noundef 1024, ptr noundef @.str.117, i32 noundef %10, i32 noundef %16, i32 noundef %22)
  ret void
}

; Function Attrs: nounwind uwtable
define dso_local i32 @XLogFileOpen(i64 noundef %0, i32 noundef %1) #0 {
  %3 = alloca i64, align 8
  %4 = alloca i32, align 4
  %5 = alloca [1024 x i8], align 16
  %6 = alloca i32, align 4
  store i64 %0, ptr %3, align 8
  store i32 %1, ptr %4, align 4
  call void @llvm.lifetime.start.p0(i64 1024, ptr %5) #16
  call void @llvm.lifetime.start.p0(i64 4, ptr %6) #16
  %7 = getelementptr inbounds [1024 x i8], ptr %5, i64 0, i64 0
  %8 = load i32, ptr %4, align 4
  %9 = load i64, ptr %3, align 8
  %10 = load i32, ptr @wal_segment_size, align 4
  call void @XLogFilePath(ptr noundef %7, i32 noundef %8, i64 noundef %9, i32 noundef %10)
  %11 = getelementptr inbounds [1024 x i8], ptr %5, i64 0, i64 0
  %12 = load i32, ptr @wal_sync_method, align 4
  %13 = call i32 @get_sync_bit(i32 noundef %12)
  %14 = or i32 524290, %13
  %15 = call i32 @BasicOpenFile(ptr noundef %11, i32 noundef %14)
  store i32 %15, ptr %6, align 4
  %16 = load i32, ptr %6, align 4
  %17 = icmp slt i32 %16, 0
  br i1 %17, label %18, label %31

18:                                               ; preds = %2
  br label %19

19:                                               ; preds = %18
  br i1 true, label %20, label %22

20:                                               ; preds = %19
  %21 = call zeroext i1 @errstart_cold(i32 noundef 23, ptr noundef null) #17
  br i1 %21, label %24, label %28

22:                                               ; preds = %19
  %23 = call zeroext i1 @errstart(i32 noundef 23, ptr noundef null)
  br i1 %23, label %24, label %28

24:                                               ; preds = %22, %20
  %25 = call i32 @errcode_for_file_access()
  %26 = getelementptr inbounds [1024 x i8], ptr %5, i64 0, i64 0
  %27 = call i32 (ptr, ...) @errmsg(ptr noundef @.str.20, ptr noundef %26)
  call void @errfinish(ptr noundef @.str.14, i32 noundef 3651, ptr noundef @__func__.XLogFileOpen)
  br label %28

28:                                               ; preds = %24, %22, %20
  unreachable

29:                                               ; No predecessors!
  br label %30

30:                                               ; preds = %29
  br label %31

31:                                               ; preds = %30, %2
  %32 = load i32, ptr %6, align 4
  call void @llvm.lifetime.end.p0(i64 4, ptr %6) #16
  call void @llvm.lifetime.end.p0(i64 1024, ptr %5) #16
  ret i32 %32
}