; Function Attrs: nounwind uwtable
define dso_local range(i32 0, -2147483648) i32 @XLogFileOpen(i64 noundef %0, i32 noundef %1) local_unnamed_addr #0 {
  %3 = alloca [1024 x i8], align 16
  call void @llvm.lifetime.start.p0(i64 1024, ptr nonnull %3) #26
  %4 = load i32, ptr @wal_segment_size, align 4
  %5 = sext i32 %4 to i64
  %6 = udiv i64 4294967296, %5
  %7 = udiv i64 %0, %6
  %8 = trunc i64 %7 to i32
  %9 = urem i64 %0, %6
  %10 = trunc nuw i64 %9 to i32
  %11 = call i32 (ptr, i64, ptr, ...) @pg_snprintf(ptr noundef nonnull %3, i64 noundef 1024, ptr noundef nonnull @.str.117, i32 noundef %1, i32 noundef %8, i32 noundef %10) #26
  %12 = load i32, ptr @wal_sync_method, align 4
  %13 = load i32, ptr @io_direct_flags, align 4
  %14 = and i32 %13, 2
  %15 = icmp eq i32 %14, 0
  %16 = load i32, ptr @MyBackendType, align 4
  %17 = icmp eq i32 %16, 13
  %or.cond.i = select i1 %15, i1 true, i1 %17
  %spec.store.select.i = select i1 %or.cond.i, i32 0, i32 16384
  %18 = load i8, ptr @enableFsync, align 1, !range !4, !noundef !5
  %19 = trunc nuw i8 %18 to i1
  br i1 %19, label %20, label %get_sync_bit.exit

20:                                               ; preds = %2
  switch i32 %12, label %25 [
    i32 0, label %get_sync_bit.exit
    i32 3, label %get_sync_bit.exit
    i32 1, label %get_sync_bit.exit
    i32 2, label %21
    i32 4, label %23
  ]

21:                                               ; preds = %20
  %22 = or disjoint i32 %spec.store.select.i, 1052672
  br label %get_sync_bit.exit

23:                                               ; preds = %20
  %24 = or disjoint i32 %spec.store.select.i, 4096
  br label %get_sync_bit.exit

25:                                               ; preds = %20
  %26 = call zeroext i1 @errstart_cold(i32 noundef 21, ptr noundef null) #27
  call void @llvm.assume(i1 %26)
  %27 = call i32 (ptr, ...) @errmsg_internal(ptr noundef nonnull @.str.78, i32 noundef %12) #26
  call void @errfinish(ptr noundef nonnull @.str.14, i32 noundef 8653, ptr noundef nonnull @__func__.get_sync_bit) #26
  unreachable

get_sync_bit.exit:                                ; preds = %2, %20, %20, %20, %21, %23
  %.0.i = phi i32 [ %24, %23 ], [ %22, %21 ], [ %spec.store.select.i, %2 ], [ %spec.store.select.i, %20 ], [ %spec.store.select.i, %20 ], [ %spec.store.select.i, %20 ]
  %28 = or i32 %.0.i, 524290
  %29 = call i32 @BasicOpenFile(ptr noundef nonnull %3, i32 noundef %28) #26
  %30 = icmp slt i32 %29, 0
  br i1 %30, label %31, label %35

31:                                               ; preds = %get_sync_bit.exit
  %32 = call zeroext i1 @errstart_cold(i32 noundef 23, ptr noundef null) #27
  call void @llvm.assume(i1 %32)
  %33 = call i32 @errcode_for_file_access() #26
  %34 = call i32 (ptr, ...) @errmsg(ptr noundef nonnull @.str.20, ptr noundef nonnull %3) #26
  call void @errfinish(ptr noundef nonnull @.str.14, i32 noundef 3651, ptr noundef nonnull @__func__.XLogFileOpen) #26
  unreachable

35:                                               ; preds = %get_sync_bit.exit
  call void @llvm.lifetime.end.p0(i64 1024, ptr nonnull %3) #26
  ret i32 %29
}